target datalayout = "e-m:e-p270:32:32-p271:32:32-p272:64:64-i64:64-i128:128-f80:128-n8:16:32:64-S128"
target triple = "x86_64-pc-linux-gnu"

@.str.2 = private unnamed_addr constant [12 x i8] c"snapbuild.c\00", align 1
@SavedResourceOwnerDuringExport = internal global ptr null, align 8
@CurrentResourceOwner = external global ptr, align 8
@ExportInProgress = internal global i8 0, align 1
@.str.13 = private unnamed_addr constant [54 x i8] c"clearing exported snapshot in wrong transaction state\00", align 1
@__func__.SnapBuildClearExportedSnapshot = private unnamed_addr constant [31 x i8] c"SnapBuildClearExportedSnapshot\00", align 1

; Function Attrs: nounwind uwtable
define dso_local void @SnapBuildClearExportedSnapshot() #0 {
  %1 = alloca ptr, align 8
  %2 = alloca i32, align 4
  call void @llvm.lifetime.start.p0(i64 8, ptr %1) #9
  %3 = load i8, ptr @ExportInProgress, align 1, !range !4, !noundef !5
  %4 = trunc i8 %3 to i1
  br i1 %4, label %6, label %5

5:                                                ; preds = %0
  store i32 1, ptr %2, align 4
  br label %22

6:                                                ; preds = %0
  %7 = call zeroext i1 @IsTransactionState()
  br i1 %7, label %19, label %8

8:                                                ; preds = %6
  br label %9

9:                                                ; preds = %8
  br i1 true, label %10, label %12

10:                                               ; preds = %9
  %11 = call zeroext i1 @errstart_cold(i32 noundef 21, ptr noundef null) #10
  br i1 %11, label %14, label %16

12:                                               ; preds = %9
  %13 = call zeroext i1 @errstart(i32 noundef 21, ptr noundef null)
  br i1 %13, label %14, label %16

14:                                               ; preds = %12, %10
  %15 = call i32 (ptr, ...) @errmsg_internal(ptr noundef @.str.13)
  call void @errfinish(ptr noundef @.str.2, i32 noundef 609, ptr noundef @__func__.SnapBuildClearExportedSnapshot)
  br label %16

16:                                               ; preds = %14, %12, %10
  unreachable

17:                                               ; No predecessors!
  br label %18

18:                                               ; preds = %17
  br label %19

19:                                               ; preds = %18, %6
  %20 = load ptr, ptr @SavedResourceOwnerDuringExport, align 8
  store ptr %20, ptr %1, align 8
  call void @AbortCurrentTransaction()
  %21 = load ptr, ptr %1, align 8
  store ptr %21, ptr @CurrentResourceOwner, align 8
  store i32 0, ptr %2, align 4
  br label %22

22:                                               ; preds = %19, %5
  call void @llvm.lifetime.end.p0(i64 8, ptr %1) #9
  %23 = load i32, ptr %2, align 4
  switch i32 %23, label %25 [
    i32 0, label %24
    i32 1, label %24
  ]

24:                                               ; preds = %22, %22
  ret void

25:                                               ; preds = %22
  unreachable
}