; Function Attrs: nounwind uwtable
define dso_local void @SnapBuildClearExportedSnapshot() local_unnamed_addr #0 {
  %.b1 = load i1, ptr @ExportInProgress, align 1
  br i1 %.b1, label %1, label %8

1:                                                ; preds = %0
  %2 = tail call zeroext i1 @IsTransactionState() #14
  br i1 %2, label %6, label %3

3:                                                ; preds = %1
  %4 = tail call zeroext i1 @errstart_cold(i32 noundef 21, ptr noundef null) #15
  tail call void @llvm.assume(i1 %4)
  %5 = tail call i32 (ptr, ...) @errmsg_internal(ptr noundef nonnull @.str.13) #14
  tail call void @errfinish(ptr noundef nonnull @.str.2, i32 noundef 609, ptr noundef nonnull @__func__.SnapBuildClearExportedSnapshot) #14
  unreachable

6:                                                ; preds = %1
  %7 = load ptr, ptr @SavedResourceOwnerDuringExport, align 8
  tail call void @AbortCurrentTransaction() #14
  store ptr %7, ptr @CurrentResourceOwner, align 8
  br label %8

8:                                                ; preds = %0, %6
  ret void
}